; ModuleID = 'source-C-CXX/52/805.c'
source_filename = "source-C-CXX/52/805.c"
target datalayout = "e-m:e-p270:32:32-p271:32:32-p272:64:64-i64:64-f80:128-n8:16:32:64-S128"
target triple = "x86_64-pc-linux-gnu"

@.str = private unnamed_addr constant [3 x i8] c"%d\00", align 1
@.str.1 = private unnamed_addr constant [4 x i8] c"%d,\00", align 1

; Function Attrs: nofree nounwind sspstrong uwtable
define dso_local i32 @main() local_unnamed_addr #0 {
  %1 = alloca [300 x i32], align 16
  %2 = alloca [300 x i32], align 16
  %3 = alloca i32, align 4
  %4 = bitcast [300 x i32]* %1 to i8*
  call void @llvm.lifetime.start.p0i8(i64 1200, i8* nonnull %4) #3
  %5 = bitcast [300 x i32]* %2 to i8*
  call void @llvm.lifetime.start.p0i8(i64 1200, i8* nonnull %5) #3
  %6 = bitcast i32* %3 to i8*
  call void @llvm.lifetime.start.p0i8(i64 4, i8* nonnull %6) #3
  %7 = call i32 (i8*, ...) @__isoc99_scanf(i8* getelementptr inbounds ([3 x i8], [3 x i8]* @.str, i64 0, i64 0), i32* nonnull %3)
  %8 = load i32, i32* %3, align 4, !tbaa !5
  %9 = icmp sgt i32 %8, 0
  br i1 %9, label %14, label %47

10:                                               ; preds = %14
  %11 = icmp sgt i32 %19, 1
  br i1 %11, label %12, label %47

12:                                               ; preds = %10
  %13 = zext i32 %19 to i64
  br label %22

14:                                               ; preds = %0, %14
  %15 = phi i64 [ %18, %14 ], [ 0, %0 ]
  %16 = getelementptr inbounds [300 x i32], [300 x i32]* %1, i64 0, i64 %15
  %17 = call i32 (i8*, ...) @__isoc99_scanf(i8* getelementptr inbounds ([3 x i8], [3 x i8]* @.str, i64 0, i64 0), i32* nonnull %16)
  %18 = add nuw nsw i64 %15, 1
  %19 = load i32, i32* %3, align 4, !tbaa !5
  %20 = sext i32 %19 to i64
  %21 = icmp slt i64 %18, %20
  br i1 %21, label %14, label %10, !llvm.loop !9

22:                                               ; preds = %12, %43
  %23 = phi i64 [ 1, %12 ], [ %45, %43 ]
  %24 = phi i32 [ 0, %12 ], [ %44, %43 ]
  %25 = getelementptr inbounds [300 x i32], [300 x i32]* %1, i64 0, i64 %23
  %26 = load i32, i32* %25, align 4, !tbaa !5
  br label %27

27:                                               ; preds = %22, %40
  %28 = phi i64 [ %23, %22 ], [ %42, %40 ]
  %29 = add i64 %28, 4294967295
  %30 = and i64 %29, 4294967295
  %31 = getelementptr inbounds [300 x i32], [300 x i32]* %1, i64 0, i64 %30
  %32 = load i32, i32* %31, align 4, !tbaa !5
  %33 = icmp eq i32 %26, %32
  br i1 %33, label %43, label %34

34:                                               ; preds = %27
  %35 = icmp eq i64 %28, 1
  br i1 %35, label %36, label %40

36:                                               ; preds = %34
  %37 = sext i32 %24 to i64
  %38 = getelementptr inbounds [300 x i32], [300 x i32]* %2, i64 0, i64 %37
  store i32 %26, i32* %38, align 4, !tbaa !5
  %39 = add nsw i32 %24, 1
  br label %43

40:                                               ; preds = %34
  %41 = icmp sgt i64 %28, 1
  %42 = add nsw i64 %28, -1
  br i1 %41, label %27, label %43, !llvm.loop !11

43:                                               ; preds = %40, %27, %36
  %44 = phi i32 [ %39, %36 ], [ %24, %27 ], [ %24, %40 ]
  %45 = add nuw nsw i64 %23, 1
  %46 = icmp eq i64 %45, %13
  br i1 %46, label %47, label %22, !llvm.loop !12

47:                                               ; preds = %43, %0, %10
  %48 = phi i32 [ 0, %10 ], [ 0, %0 ], [ %44, %43 ]
  %49 = getelementptr inbounds [300 x i32], [300 x i32]* %1, i64 0, i64 0
  %50 = load i32, i32* %49, align 16, !tbaa !5
  %51 = call i32 (i8*, ...) @printf(i8* nonnull dereferenceable(1) getelementptr inbounds ([4 x i8], [4 x i8]* @.str.1, i64 0, i64 0), i32 %50)
  %52 = icmp sgt i32 %48, 0
  br i1 %52, label %53, label %58

53:                                               ; preds = %47
  %54 = add nsw i32 %48, -1
  %55 = zext i32 %54 to i64
  %56 = zext i32 %48 to i64
  %57 = getelementptr inbounds [300 x i32], [300 x i32]* %2, i64 0, i64 %55
  br label %59

58:                                               ; preds = %59, %47
  call void @llvm.lifetime.end.p0i8(i64 4, i8* nonnull %6) #3
  call void @llvm.lifetime.end.p0i8(i64 1200, i8* nonnull %5) #3
  call void @llvm.lifetime.end.p0i8(i64 1200, i8* nonnull %4) #3
  ret i32 0

59:                                               ; preds = %53, %59
  %60 = phi i64 [ 0, %53 ], [ %67, %59 ]
  %61 = icmp eq i64 %60, %55
  %62 = getelementptr inbounds [300 x i32], [300 x i32]* %2, i64 0, i64 %60
  %63 = select i1 %61, i32* %57, i32* %62
  %64 = select i1 %61, i8* getelementptr inbounds ([3 x i8], [3 x i8]* @.str, i64 0, i64 0), i8* getelementptr inbounds ([4 x i8], [4 x i8]* @.str.1, i64 0, i64 0)
  %65 = load i32, i32* %63, align 4, !tbaa !5
  %66 = call i32 (i8*, ...) @printf(i8* nonnull dereferenceable(1) %64, i32 %65)
  %67 = add nuw nsw i64 %60, 1
  %68 = icmp eq i64 %67, %56
  br i1 %68, label %58, label %59, !llvm.loop !13
}

; Function Attrs: argmemonly mustprogress nofree nosync nounwind willreturn
declare void @llvm.lifetime.start.p0i8(i64 immarg, i8* nocapture) #1

; Function Attrs: nofree nounwind
declare noundef i32 @__isoc99_scanf(i8* nocapture noundef readonly, ...) local_unnamed_addr #2

; Function Attrs: nofree nounwind
declare noundef i32 @printf(i8* nocapture noundef readonly, ...) local_unnamed_addr #2

; Function Attrs: argmemonly mustprogress nofree nosync nounwind willreturn
declare void @llvm.lifetime.end.p0i8(i64 immarg, i8* nocapture) #1


!llvm.module.flags = !{!0, !1, !2, !3}
!llvm.ident = !{!4}

!0 = !{i32 1, !"wchar_size", i32 4}
!1 = !{i32 7, !"PIC Level", i32 2}
!2 = !{i32 7, !"PIE Level", i32 2}
!3 = !{i32 7, !"uwtable", i32 1}
!4 = !{!"clang version 13.0.0"}
!5 = !{!6, !6, i64 0}
!6 = !{!"int", !7, i64 0}
!7 = !{!"omnipotent char", !8, i64 0}
!8 = !{!"Simple C/C++ TBAA"}
!9 = distinct !{!9, !10}
!10 = !{!"llvm.loop.mustprogress"}
!11 = distinct !{!11, !10}
!12 = distinct !{!12, !10}
!13 = distinct !{!13, !10}
